; Function Attrs: mustprogress null_pointer_is_valid sspstrong uwtable
define void @_ZN22SCTPAssocAnalyseDialog20openGraphArwndDialogEi(ptr noundef align 8 dereferenceable_or_null(64) %0, i32 noundef %1) local_unnamed_addr #0 align 2 personality ptr @__gxx_personality_v0 {
  %3 = getelementptr inbounds nuw i8, ptr %0, i64 48
  %4 = load i16, ptr %3, align 8
  %5 = tail call noundef ptr @_ZN22SCTPAssocAnalyseDialog9findAssocEP7QWidgett(ptr noundef %0, i16 noundef zeroext %4)
  %.not = icmp eq ptr %5, null
  br i1 %.not, label %17, label %6

6:                                                ; preds = %2
  %7 = tail call noalias noundef dereferenceable_or_null(152) ptr @_Znwm(i64 noundef 152) #11
  %8 = getelementptr inbounds nuw i8, ptr %0, i64 56
  %9 = load ptr, ptr %8, align 8
  invoke void @_ZN20SCTPGraphArwndDialogC1EP7QWidgetPK16_sctp_assoc_infoP13_capture_filei(ptr noundef align 8 dereferenceable_or_null(152) %7, ptr noundef %0, ptr noundef nonnull %5, ptr noundef %9, i32 noundef %1)
          to label %10 unwind label %13

10:                                               ; preds = %6
  %11 = tail call noundef zeroext i1 @_ZNK7QWidget11isMinimizedEv(ptr noundef align 8 dereferenceable_or_null(40) %7)
  br i1 %11, label %12, label %15

12:                                               ; preds = %10
  tail call void @_ZN7QWidget10showNormalEv(ptr noundef align 8 dereferenceable_or_null(40) %7)
  br label %16

13:                                               ; preds = %6
  %14 = landingpad { ptr, i32 }
          cleanup
  tail call void @_ZdlPvm(ptr noundef %7, i64 noundef 152) #13
  resume { ptr, i32 } %14

15:                                               ; preds = %10
  tail call void @_ZN7QWidget4showEv(ptr noundef align 8 dereferenceable_or_null(40) %7)
  br label %16

16:                                               ; preds = %15, %12
  tail call void @_ZN7QWidget5raiseEv(ptr noundef align 8 dereferenceable_or_null(40) %7)
  tail call void @_ZN7QWidget14activateWindowEv(ptr noundef align 8 dereferenceable_or_null(40) %7)
  br label %17

17:                                               ; preds = %2, %16
  ret void
}